ARM GAS  C:\Users\Administrator\AppData\Local\Temp\ccOnlNxv.s 			page 1


   1              		.cpu cortex-m0plus
   2              		.fpu softvfp
   3              		.eabi_attribute 20, 1
   4              		.eabi_attribute 21, 1
   5              		.eabi_attribute 23, 3
   6              		.eabi_attribute 24, 1
   7              		.eabi_attribute 25, 1
   8              		.eabi_attribute 26, 1
   9              		.eabi_attribute 30, 1
  10              		.eabi_attribute 34, 0
  11              		.eabi_attribute 18, 4
  12              		.code	16
  13              		.file	"main.c"
  14              		.text
  15              	.Ltext0:
  16              		.cfi_sections	.debug_frame
  17              		.section	.text.main,"ax",%progbits
  18              		.align	2
  19              		.global	main
  20              		.code	16
  21              		.thumb_func
  22              		.type	main, %function
  23              	main:
  24              	.LFB35:
  25              		.file 1 "main.c"
   1:main.c        **** /* ========================================
   2:main.c        ****  *
   3:main.c        ****  * Copyright YOUR COMPANY, THE YEAR
   4:main.c        ****  * All Rights Reserved
   5:main.c        ****  * UNPUBLISHED, LICENSED SOFTWARE.
   6:main.c        ****  *
   7:main.c        ****  * CONFIDENTIAL AND PROPRIETARY INFORMATION
   8:main.c        ****  * WHICH IS THE PROPERTY OF your company.
   9:main.c        ****  *
  10:main.c        ****  * ========================================
  11:main.c        **** */
  12:main.c        **** #include "project.h"
  13:main.c        **** #include "A7105_driver.h"
  14:main.c        **** CY_ISR_PROTO(time_1ms_Interrupt);
  15:main.c        **** uint8 t = 0;
  16:main.c        **** uint8 send_buffer[16]; 
  17:main.c        **** uint16 timer_count = 0;
  18:main.c        **** //#define TOUCH_TUNE_SWITCH
  19:main.c        **** int main(void)
  20:main.c        **** {
  26              		.loc 1 20 0
  27              		.cfi_startproc
  28 0000 08B5     		push	{r3, lr}
  29              		.cfi_def_cfa_offset 8
  30              		.cfi_offset 3, -8
  31              		.cfi_offset 14, -4
  21:main.c        ****     static volatile uint8 temp = 0;
  22:main.c        ****     CyGlobalIntEnable; /* Enable global interrupts. */
  32              		.loc 1 22 0
  33              	@ 22 "main.c" 1
  34 0002 62B6     		CPSIE   i
  35              	@ 0 "" 2
ARM GAS  C:\Users\Administrator\AppData\Local\Temp\ccOnlNxv.s 			page 2


  23:main.c        ****     A7105_init();
  36              		.loc 1 23 0
  37              		.code	16
  38 0004 FFF7FEFF 		bl	A7105_init
  39              	.LVL0:
  24:main.c        ****     //GIO1_Write(1);
  25:main.c        **** #ifdef TOUCH_TUNE_SWITCH 
  26:main.c        ****     
  27:main.c        ****     EZI2C_Start(); /* Start EZI2C Component */
  28:main.c        ****     /*
  29:main.c        ****     * Set up communication and initialize data buffer to CapSense data structure
  30:main.c        ****     * to use Tuner application
  31:main.c        ****     */
  32:main.c        ****     EZI2C_EzI2CSetBuffer1(sizeof(key_touch_dsRam), sizeof(key_touch_dsRam),(uint8 *)&key_touch_dsRa
  33:main.c        **** 
  34:main.c        **** #endif
  35:main.c        ****     //Timer_1_Start();
  36:main.c        ****     //time_1ms_ISR_StartEx(time_1ms_Interrupt);
  37:main.c        ****     key_touch_Start(); /* Initialize Component */
  40              		.loc 1 37 0
  41 0008 FFF7FEFF 		bl	key_touch_Start
  42              	.LVL1:
  38:main.c        ****     key_touch_ScanAllWidgets(); /* Scan all widgets */
  43              		.loc 1 38 0
  44 000c FFF7FEFF 		bl	key_touch_ScanAllWidgets
  45              	.LVL2:
  46              	.L2:
  39:main.c        **** 
  40:main.c        ****     /* Place your initialization/startup code here (e.g. MyInst_Start()) */
  41:main.c        **** 
  42:main.c        ****     for(;;)
  43:main.c        ****     {
  44:main.c        ****         /* Do this only when a scan is done */
  45:main.c        ****         
  46:main.c        ****         if(key_touch_NOT_BUSY == key_touch_IsBusy()) /*判断触控按键扫描是否完成*/
  47              		.loc 1 46 0
  48 0010 FFF7FEFF 		bl	key_touch_IsBusy
  49              	.LVL3:
  50 0014 0028     		cmp	r0, #0
  51 0016 FBD1     		bne	.L2
  47:main.c        ****         {
  48:main.c        ****             key_touch_ProcessAllWidgets(); /* Process all widgets */
  52              		.loc 1 48 0
  53 0018 FFF7FEFF 		bl	key_touch_ProcessAllWidgets
  54              	.LVL4:
  49:main.c        ****             
  50:main.c        **** #ifdef TOUCH_TUNE_SWITCH             
  51:main.c        ****             key_touch_RunTuner(); /* To sync with Tuner application */
  52:main.c        **** #endif
  53:main.c        ****             if (key_touch_IsWidgetActive(key_touch_BUTTON0_WDGT_ID))
  55              		.loc 1 53 0
  56 001c 0020     		mov	r0, #0
  57 001e FFF7FEFF 		bl	key_touch_IsWidgetActive
  58              	.LVL5:
  59 0022 0028     		cmp	r0, #0
  60 0024 02D0     		beq	.L3
  54:main.c        ****                 t = 1+0x10;
ARM GAS  C:\Users\Administrator\AppData\Local\Temp\ccOnlNxv.s 			page 3


  61              		.loc 1 54 0
  62 0026 1122     		mov	r2, #17
  63 0028 344B     		ldr	r3, .L17
  64 002a 1A70     		strb	r2, [r3]
  65              	.L3:
  55:main.c        ****             if (key_touch_IsWidgetActive(key_touch_BUTTON1_WDGT_ID))
  66              		.loc 1 55 0
  67 002c 0120     		mov	r0, #1
  68 002e FFF7FEFF 		bl	key_touch_IsWidgetActive
  69              	.LVL6:
  70 0032 0028     		cmp	r0, #0
  71 0034 02D0     		beq	.L4
  56:main.c        ****                 t = 2+0x10;
  72              		.loc 1 56 0
  73 0036 1222     		mov	r2, #18
  74 0038 304B     		ldr	r3, .L17
  75 003a 1A70     		strb	r2, [r3]
  76              	.L4:
  57:main.c        ****             if (key_touch_IsWidgetActive(key_touch_BUTTON2_WDGT_ID))
  77              		.loc 1 57 0
  78 003c 0220     		mov	r0, #2
  79 003e FFF7FEFF 		bl	key_touch_IsWidgetActive
  80              	.LVL7:
  81 0042 0028     		cmp	r0, #0
  82 0044 02D0     		beq	.L5
  58:main.c        ****                 t = 3+0x10;
  83              		.loc 1 58 0
  84 0046 1322     		mov	r2, #19
  85 0048 2C4B     		ldr	r3, .L17
  86 004a 1A70     		strb	r2, [r3]
  87              	.L5:
  59:main.c        ****             if (key_touch_IsWidgetActive(key_touch_BUTTON3_WDGT_ID))
  88              		.loc 1 59 0
  89 004c 0320     		mov	r0, #3
  90 004e FFF7FEFF 		bl	key_touch_IsWidgetActive
  91              	.LVL8:
  92 0052 0028     		cmp	r0, #0
  93 0054 02D0     		beq	.L6
  60:main.c        ****                 t = 4+0x10;
  94              		.loc 1 60 0
  95 0056 1422     		mov	r2, #20
  96 0058 284B     		ldr	r3, .L17
  97 005a 1A70     		strb	r2, [r3]
  98              	.L6:
  61:main.c        ****             if (key_touch_IsWidgetActive(key_touch_BUTTON4_WDGT_ID))
  99              		.loc 1 61 0
 100 005c 0420     		mov	r0, #4
 101 005e FFF7FEFF 		bl	key_touch_IsWidgetActive
 102              	.LVL9:
 103 0062 0028     		cmp	r0, #0
 104 0064 02D0     		beq	.L7
  62:main.c        ****                 t = 5+0x10;
 105              		.loc 1 62 0
 106 0066 1522     		mov	r2, #21
 107 0068 244B     		ldr	r3, .L17
 108 006a 1A70     		strb	r2, [r3]
 109              	.L7:
ARM GAS  C:\Users\Administrator\AppData\Local\Temp\ccOnlNxv.s 			page 4


  63:main.c        ****             if (key_touch_IsWidgetActive(key_touch_BUTTON5_WDGT_ID))
 110              		.loc 1 63 0
 111 006c 0520     		mov	r0, #5
 112 006e FFF7FEFF 		bl	key_touch_IsWidgetActive
 113              	.LVL10:
 114 0072 0028     		cmp	r0, #0
 115 0074 02D0     		beq	.L8
  64:main.c        ****                 t = 6+0x10;
 116              		.loc 1 64 0
 117 0076 1622     		mov	r2, #22
 118 0078 204B     		ldr	r3, .L17
 119 007a 1A70     		strb	r2, [r3]
 120              	.L8:
  65:main.c        ****             if (key_touch_IsWidgetActive(key_touch_BUTTON6_WDGT_ID))
 121              		.loc 1 65 0
 122 007c 0620     		mov	r0, #6
 123 007e FFF7FEFF 		bl	key_touch_IsWidgetActive
 124              	.LVL11:
 125 0082 0028     		cmp	r0, #0
 126 0084 02D0     		beq	.L9
  66:main.c        ****                 t = 7+0x10;
 127              		.loc 1 66 0
 128 0086 1722     		mov	r2, #23
 129 0088 1C4B     		ldr	r3, .L17
 130 008a 1A70     		strb	r2, [r3]
 131              	.L9:
  67:main.c        ****             if (key_touch_IsWidgetActive(key_touch_BUTTON7_WDGT_ID))
 132              		.loc 1 67 0
 133 008c 0720     		mov	r0, #7
 134 008e FFF7FEFF 		bl	key_touch_IsWidgetActive
 135              	.LVL12:
 136 0092 0028     		cmp	r0, #0
 137 0094 02D0     		beq	.L10
  68:main.c        ****                 t = 8+0x10;
 138              		.loc 1 68 0
 139 0096 1822     		mov	r2, #24
 140 0098 184B     		ldr	r3, .L17
 141 009a 1A70     		strb	r2, [r3]
 142              	.L10:
  69:main.c        ****             if (key_touch_IsWidgetActive(key_touch_BUTTON8_WDGT_ID))
 143              		.loc 1 69 0
 144 009c 0820     		mov	r0, #8
 145 009e FFF7FEFF 		bl	key_touch_IsWidgetActive
 146              	.LVL13:
 147 00a2 0028     		cmp	r0, #0
 148 00a4 02D0     		beq	.L11
  70:main.c        ****                 t = 9+0x10;
 149              		.loc 1 70 0
 150 00a6 1922     		mov	r2, #25
 151 00a8 144B     		ldr	r3, .L17
 152 00aa 1A70     		strb	r2, [r3]
 153              	.L11:
  71:main.c        ****             if (key_touch_IsWidgetActive(key_touch_BUTTON9_WDGT_ID))
 154              		.loc 1 71 0
 155 00ac 0920     		mov	r0, #9
 156 00ae FFF7FEFF 		bl	key_touch_IsWidgetActive
 157              	.LVL14:
ARM GAS  C:\Users\Administrator\AppData\Local\Temp\ccOnlNxv.s 			page 5


 158 00b2 0028     		cmp	r0, #0
 159 00b4 02D0     		beq	.L12
  72:main.c        ****                 t = 10+0x10;
 160              		.loc 1 72 0
 161 00b6 1A22     		mov	r2, #26
 162 00b8 104B     		ldr	r3, .L17
 163 00ba 1A70     		strb	r2, [r3]
 164              	.L12:
  73:main.c        ****             if (key_touch_IsWidgetActive(key_touch_BUTTON10_WDGT_ID))
 165              		.loc 1 73 0
 166 00bc 0A20     		mov	r0, #10
 167 00be FFF7FEFF 		bl	key_touch_IsWidgetActive
 168              	.LVL15:
 169 00c2 0028     		cmp	r0, #0
 170 00c4 02D0     		beq	.L13
  74:main.c        ****                 t = 11+0x10;
 171              		.loc 1 74 0
 172 00c6 1B22     		mov	r2, #27
 173 00c8 0C4B     		ldr	r3, .L17
 174 00ca 1A70     		strb	r2, [r3]
 175              	.L13:
  75:main.c        ****             if (key_touch_IsWidgetActive(key_touch_BUTTON11_WDGT_ID))
 176              		.loc 1 75 0
 177 00cc 0B20     		mov	r0, #11
 178 00ce FFF7FEFF 		bl	key_touch_IsWidgetActive
 179              	.LVL16:
 180 00d2 0028     		cmp	r0, #0
 181 00d4 02D0     		beq	.L14
  76:main.c        ****                 t = 12+0x10;
 182              		.loc 1 76 0
 183 00d6 1C22     		mov	r2, #28
 184 00d8 084B     		ldr	r3, .L17
 185 00da 1A70     		strb	r2, [r3]
 186              	.L14:
  77:main.c        ****             if (t > 0x10)
 187              		.loc 1 77 0
 188 00dc 074B     		ldr	r3, .L17
 189 00de 1B78     		ldrb	r3, [r3]
 190 00e0 102B     		cmp	r3, #16
 191 00e2 07D9     		bls	.L15
  78:main.c        ****             {
  79:main.c        ****                 temp = !temp;
 192              		.loc 1 79 0
 193 00e4 054A     		ldr	r2, .L17
 194 00e6 5378     		ldrb	r3, [r2, #1]
 195 00e8 5942     		neg	r1, r3
 196 00ea 4B41     		adc	r3, r3, r1
 197 00ec DBB2     		uxtb	r3, r3
 198 00ee 5370     		strb	r3, [r2, #1]
  80:main.c        ****                 t = temp;
 199              		.loc 1 80 0
 200 00f0 5378     		ldrb	r3, [r2, #1]
 201 00f2 1370     		strb	r3, [r2]
 202              	.L15:
  81:main.c        ****             }
  82:main.c        ****             key_touch_ScanAllWidgets(); /* Start next scan */
 203              		.loc 1 82 0
ARM GAS  C:\Users\Administrator\AppData\Local\Temp\ccOnlNxv.s 			page 6


 204 00f4 FFF7FEFF 		bl	key_touch_ScanAllWidgets
 205              	.LVL17:
 206 00f8 8AE7     		b	.L2
 207              	.L18:
 208 00fa C046     		.align	2
 209              	.L17:
 210 00fc 00000000 		.word	.LANCHOR0
 211              		.cfi_endproc
 212              	.LFE35:
 213              		.size	main, .-main
 214              		.section	.text.time_1ms_Interrupt,"ax",%progbits
 215              		.align	2
 216              		.global	time_1ms_Interrupt
 217              		.code	16
 218              		.thumb_func
 219              		.type	time_1ms_Interrupt, %function
 220              	time_1ms_Interrupt:
 221              	.LFB36:
  83:main.c        ****         }
  84:main.c        ****         //if (!(timer_count % 100))
  85:main.c        ****             //StrobeCmd(CMD_RX);
  86:main.c        ****             //send_data_by_A7105(16, send_buffer);
  87:main.c        ****         /* Place your application code here. */
  88:main.c        ****     }
  89:main.c        **** }
  90:main.c        **** CY_ISR(time_1ms_Interrupt)
  91:main.c        **** {
 222              		.loc 1 91 0
 223              		.cfi_startproc
 224 0000 08B5     		push	{r3, lr}
 225              		.cfi_def_cfa_offset 8
 226              		.cfi_offset 3, -8
 227              		.cfi_offset 14, -4
  92:main.c        ****     Timer_1_ClearInterrupt(Timer_1_INTR_MASK_TC);
 228              		.loc 1 92 0
 229 0002 0120     		mov	r0, #1
 230 0004 FFF7FEFF 		bl	Timer_1_ClearInterrupt
 231              	.LVL18:
  93:main.c        ****     //SCS_Write(t);
  94:main.c        ****     timer_count++;
 232              		.loc 1 94 0
 233 0008 024A     		ldr	r2, .L20
 234 000a 5388     		ldrh	r3, [r2, #2]
 235 000c 0133     		add	r3, r3, #1
 236 000e 5380     		strh	r3, [r2, #2]
  95:main.c        **** }
 237              		.loc 1 95 0
 238              		@ sp needed
 239 0010 08BD     		pop	{r3, pc}
 240              	.L21:
 241 0012 C046     		.align	2
 242              	.L20:
 243 0014 00000000 		.word	.LANCHOR0
 244              		.cfi_endproc
 245              	.LFE36:
 246              		.size	time_1ms_Interrupt, .-time_1ms_Interrupt
 247              		.global	timer_count
ARM GAS  C:\Users\Administrator\AppData\Local\Temp\ccOnlNxv.s 			page 7


 248              		.comm	send_buffer,16,4
 249              		.global	t
 250              		.bss
 251              		.align	1
 252              		.set	.LANCHOR0,. + 0
 253              		.type	t, %object
 254              		.size	t, 1
 255              	t:
 256 0000 00       		.space	1
 257              		.type	temp.5770, %object
 258              		.size	temp.5770, 1
 259              	temp.5770:
 260 0001 00       		.space	1
 261              		.type	timer_count, %object
 262              		.size	timer_count, 2
 263              	timer_count:
 264 0002 0000     		.space	2
 265              		.text
 266              	.Letext0:
 267              		.file 2 "Generated_Source\\PSoC4/cytypes.h"
 268              		.file 3 "Generated_Source\\PSoC4/key_touch_Control.h"
 269              		.file 4 "Generated_Source\\PSoC4/key_touch_Sensing.h"
 270              		.file 5 "A7105_driver.h"
 271              		.file 6 "Generated_Source\\PSoC4/key_touch_Structure.h"
 272              		.file 7 "Generated_Source\\PSoC4/Timer_1.h"